target datalayout = "e-m:e-p270:32:32-p271:32:32-p272:64:64-i64:64-i128:128-f80:128-n8:16:32:64-S128"
target triple = "x86_64-pc-linux-gnu"

%"class.llvm::SmallVectorBase" = type { ptr, i32, i32 }
%"class.llvm::DominatorTreeBase" = type <{ %"class.llvm::SmallVector.12", %"class.llvm::SmallVector.17", [8 x i8], ptr, ptr, i8, [3 x i8], i32, i32, [4 x i8] }>
%"class.llvm::SmallVector.12" = type { %"class.llvm::SmallVectorImpl.13", %"struct.llvm::SmallVectorStorage.16" }
%"class.llvm::SmallVectorImpl.13" = type { %"class.llvm::SmallVectorTemplateBase.14" }
%"class.llvm::SmallVectorTemplateBase.14" = type { %"class.llvm::SmallVectorTemplateCommon.15" }
%"class.llvm::SmallVectorTemplateCommon.15" = type { %"class.llvm::SmallVectorBase" }
%"struct.llvm::SmallVectorStorage.16" = type { [8 x i8] }
%"class.llvm::SmallVector.17" = type { %"class.llvm::SmallVectorImpl.18", %"struct.llvm::SmallVectorStorage.21" }
%"class.llvm::SmallVectorImpl.18" = type { %"class.llvm::SmallVectorTemplateBase.19" }
%"class.llvm::SmallVectorTemplateBase.19" = type { %"class.llvm::SmallVectorTemplateCommon.20" }
%"class.llvm::SmallVectorTemplateCommon.20" = type { %"class.llvm::SmallVectorBase" }
%"struct.llvm::SmallVectorStorage.21" = type { [48 x i8] }
%"class.llvm::DominatorTree" = type { %"class.llvm::DominatorTreeBase.base", [4 x i8] }
%"class.llvm::DominatorTreeBase.base" = type <{ %"class.llvm::SmallVector.12", %"class.llvm::SmallVector.17", [8 x i8], ptr, ptr, i8, [3 x i8], i32, i32 }>
%"class.llvm::DominatorTreeWrapperPass" = type { %"class.llvm::FunctionPass.base", [4 x i8], %"class.llvm::DominatorTree" }
%"class.llvm::FunctionPass.base" = type { %"class.llvm::Pass.base" }
%"class.llvm::Pass.base" = type <{ ptr, ptr, ptr, i32 }>
%"class.llvm::Value" = type { i8, i8, i16, i32, ptr, ptr }
%"class.llvm::ilist_node_impl" = type { %"class.llvm::ilist_node_base" }
%"class.llvm::ilist_node_base" = type { %"class.llvm::ilist_detail::node_base_prevnext" }
%"class.llvm::ilist_detail::node_base_prevnext" = type { ptr, ptr }
%"class.llvm::Function" = type { %"class.llvm::GlobalObject", %"class.llvm::ilist_node.51", %"class.llvm::SymbolTableList.54", i32, i32, ptr, i64, %"class.std::unique_ptr.62", %"class.llvm::AttributeList", i8, i32 }
%"class.llvm::GlobalObject" = type { %"class.llvm::GlobalValue", ptr }
%"class.llvm::GlobalValue" = type { %"class.llvm::Constant", ptr, i32, i32, ptr }
%"class.llvm::Constant" = type { %"class.llvm::User" }
%"class.llvm::User" = type { %"class.llvm::Value" }
%"class.llvm::ilist_node.51" = type { %"class.llvm::ilist_node_impl.52" }
%"class.llvm::ilist_node_impl.52" = type { %"class.llvm::ilist_node_base" }
%"class.llvm::SymbolTableList.54" = type { %"class.llvm::iplist_impl.55" }
%"class.llvm::iplist_impl.55" = type { %"class.llvm::simple_ilist.58" }
%"class.llvm::simple_ilist.58" = type { %"class.llvm::ilist_sentinel.61" }
%"class.llvm::ilist_sentinel.61" = type { %"class.llvm::ilist_node_impl" }
%"class.std::unique_ptr.62" = type { %"struct.std::__uniq_ptr_data.63" }
%"struct.std::__uniq_ptr_data.63" = type { %"class.std::__uniq_ptr_impl.64" }
%"class.std::__uniq_ptr_impl.64" = type { %"class.std::tuple.65" }
%"class.std::tuple.65" = type { %"struct.std::_Tuple_impl.66" }
%"struct.std::_Tuple_impl.66" = type { %"struct.std::_Head_base.69" }
%"struct.std::_Head_base.69" = type { ptr }
%"class.llvm::AttributeList" = type { ptr }

; Function Attrs: mustprogress nounwind uwtable
define linkonce_odr hidden noundef i32 @_ZNK4llvm8Function19getBlockNumberEpochEv(ptr noundef nonnull align 8 dereferenceable(136) %0) #1 comdat align 2 {
  %2 = alloca ptr, align 8
  store ptr %0, ptr %2, align 8
  %3 = load ptr, ptr %2, align 8
  %4 = getelementptr inbounds nuw %"class.llvm::Function", ptr %3, i32 0, i32 4
  %5 = load i32, ptr %4, align 4
  ret i32 %5
}

; Function Attrs: mustprogress nounwind uwtable
define linkonce_odr hidden noundef i32 @_ZN4llvm11GraphTraitsIPNS_8FunctionEE14getNumberEpochEPKS1_(ptr noundef %0) #1 comdat align 2 {
  %2 = alloca ptr, align 8
  store ptr %0, ptr %2, align 8
  %3 = load ptr, ptr %2, align 8
  %4 = call noundef i32 @_ZNK4llvm8Function19getBlockNumberEpochEv(ptr noundef nonnull align 8 dereferenceable(136) %3)
  ret i32 %4
}

; Function Attrs: mustprogress nounwind uwtable
define weak_odr void @_ZN4llvm14DomTreeBuilder9CalculateINS_17DominatorTreeBaseINS_10BasicBlockELb0EEEEEvRT_(ptr noundef nonnull align 8 dereferenceable(124) %0) #1 comdat {
  %2 = alloca ptr, align 8
  store ptr %0, ptr %2, align 8
  %3 = load ptr, ptr %2, align 8
  call void @_ZN4llvm14DomTreeBuilder11SemiNCAInfoINS_17DominatorTreeBaseINS_10BasicBlockELb0EEEE20CalculateFromScratchERS4_PNS5_15BatchUpdateInfoE(ptr noundef nonnull align 8 dereferenceable(124) %3, ptr noundef null)
  ret void
}

; Function Attrs: mustprogress nounwind uwtable
define weak_odr void @_ZN4llvm17DominatorTreeBaseINS_10BasicBlockELb0EE22updateBlockNumberEpochEv(ptr noundef nonnull align 8 dereferenceable(124) %0) #1 comdat align 2 {
  %2 = alloca ptr, align 8
  store ptr %0, ptr %2, align 8
  %3 = load ptr, ptr %2, align 8
  %4 = getelementptr inbounds nuw %"class.llvm::DominatorTreeBase", ptr %3, i32 0, i32 4
  %5 = load ptr, ptr %4, align 8
  %6 = call noundef i32 @_ZN4llvm11GraphTraitsIPNS_8FunctionEE14getNumberEpochEPKS1_(ptr noundef %5)
  %7 = getelementptr inbounds nuw %"class.llvm::DominatorTreeBase", ptr %3, i32 0, i32 8
  store i32 %6, ptr %7, align 8
  ret void
}

; Function Attrs: mustprogress nounwind uwtable
define weak_odr void @_ZN4llvm17DominatorTreeBaseINS_10BasicBlockELb0EE11recalculateERNS_8FunctionE(ptr noundef nonnull align 8 dereferenceable(124) %0, ptr noundef nonnull align 8 dereferenceable(136) %1) #1 comdat align 2 {
  %3 = alloca ptr, align 8
  %4 = alloca ptr, align 8
  store ptr %0, ptr %3, align 8
  store ptr %1, ptr %4, align 8
  %5 = load ptr, ptr %3, align 8
  %6 = load ptr, ptr %4, align 8
  %7 = getelementptr inbounds nuw %"class.llvm::DominatorTreeBase", ptr %5, i32 0, i32 4
  store ptr %6, ptr %7, align 8
  call void @_ZN4llvm17DominatorTreeBaseINS_10BasicBlockELb0EE22updateBlockNumberEpochEv(ptr noundef nonnull align 8 dereferenceable(124) %5)
  call void @_ZN4llvm14DomTreeBuilder9CalculateINS_17DominatorTreeBaseINS_10BasicBlockELb0EEEEEvRT_(ptr noundef nonnull align 8 dereferenceable(124) %5)
  ret void
}

; Function Attrs: mustprogress nounwind uwtable
define dso_local noundef zeroext i1 @_ZN4llvm24DominatorTreeWrapperPass13runOnFunctionERNS_8FunctionE(ptr noundef nonnull align 8 dereferenceable(160) %0, ptr noundef nonnull align 8 dereferenceable(136) %1) unnamed_addr #1 align 2 {
  %3 = alloca ptr, align 8
  %4 = alloca ptr, align 8
  store ptr %0, ptr %3, align 8
  store ptr %1, ptr %4, align 8
  %5 = load ptr, ptr %3, align 8
  %6 = getelementptr inbounds nuw %"class.llvm::DominatorTreeWrapperPass", ptr %5, i32 0, i32 2
  %7 = load ptr, ptr %4, align 8
  call void @_ZN4llvm17DominatorTreeBaseINS_10BasicBlockELb0EE11recalculateERNS_8FunctionE(ptr noundef nonnull align 8 dereferenceable(124) %6, ptr noundef nonnull align 8 dereferenceable(136) %7)
  ret i1 false
}