; Function Attrs: mustprogress nounwind uwtable
define dso_local noundef zeroext i1 @_ZN4llvm24DominatorTreeWrapperPass13runOnFunctionERNS_8FunctionE(ptr noundef nonnull align 8 dereferenceable(160) %0, ptr noundef nonnull align 8 dereferenceable(136) %1) unnamed_addr #0 align 2 {
  %3 = getelementptr inbounds nuw i8, ptr %0, i64 32
  %4 = getelementptr inbounds i8, ptr %0, i64 136
  store ptr %1, ptr %4, align 8
  %5 = getelementptr inbounds nuw i8, ptr %1, i64 92
  %6 = load i32, ptr %5, align 4
  %7 = getelementptr inbounds i8, ptr %0, i64 152
  store i32 %6, ptr %7, align 8
  tail call void @_ZN4llvm14DomTreeBuilder11SemiNCAInfoINS_17DominatorTreeBaseINS_10BasicBlockELb0EEEE20CalculateFromScratchERS4_PNS5_15BatchUpdateInfoE(ptr noundef nonnull align 8 dereferenceable(124) %3, ptr noundef null)
  ret i1 false
}